target datalayout = "e-m:e-p270:32:32-p271:32:32-p272:64:64-i64:64-i128:128-f80:128-n8:16:32:64-S128"
target triple = "x86_64-pc-linux-gnu"

%struct.XML_Parser_Struct = type { i32, ptr, ptr, ptr, ptr, ptr, ptr, ptr, ptr, ptr, ptr, ptr, ptr, ptr, ptr }

@xmlFree = external global ptr, align 8
@.str.7 = private unnamed_addr constant [6 x i8] c"</%s>\00", align 1
@.str.17 = private unnamed_addr constant [9 x i8] c"</%s:%s>\00", align 1

; Function Attrs: nounwind uwtable
define internal void @qualify_namespace(ptr noundef %0, ptr noundef %1, ptr noundef %2, ptr noundef %3) #0 {
  %5 = alloca ptr, align 8
  %6 = alloca ptr, align 8
  %7 = alloca ptr, align 8
  %8 = alloca ptr, align 8
  store ptr %0, ptr %5, align 8, !tbaa !11
  store ptr %1, ptr %6, align 8, !tbaa !4
  store ptr %2, ptr %7, align 8, !tbaa !4
  store ptr %3, ptr %8, align 8, !tbaa !96
  %9 = load ptr, ptr %7, align 8, !tbaa !4
  %10 = icmp ne ptr %9, null
  br i1 %10, label %11, label %29

11:                                               ; preds = %4
  %12 = load ptr, ptr %7, align 8, !tbaa !4
  %13 = call ptr @xmlStrdup(ptr noundef %12)
  %14 = load ptr, ptr %8, align 8, !tbaa !96
  store ptr %13, ptr %14, align 8, !tbaa !4
  %15 = load ptr, ptr %8, align 8, !tbaa !96
  %16 = load ptr, ptr %15, align 8, !tbaa !4
  %17 = load ptr, ptr %5, align 8, !tbaa !11
  %18 = getelementptr inbounds nuw %struct.XML_Parser_Struct, ptr %17, i32 0, i32 1
  %19 = load ptr, ptr %18, align 8, !tbaa !17
  %20 = call ptr @xmlStrncat(ptr noundef %16, ptr noundef %19, i32 noundef 1)
  %21 = load ptr, ptr %8, align 8, !tbaa !96
  store ptr %20, ptr %21, align 8, !tbaa !4
  %22 = load ptr, ptr %8, align 8, !tbaa !96
  %23 = load ptr, ptr %22, align 8, !tbaa !4
  %24 = load ptr, ptr %6, align 8, !tbaa !4
  %25 = load ptr, ptr %6, align 8, !tbaa !4
  %26 = call i32 @xmlStrlen(ptr noundef %25)
  %27 = call ptr @xmlStrncat(ptr noundef %23, ptr noundef %24, i32 noundef %26)
  %28 = load ptr, ptr %8, align 8, !tbaa !96
  store ptr %27, ptr %28, align 8, !tbaa !4
  br label %33

29:                                               ; preds = %4
  %30 = load ptr, ptr %6, align 8, !tbaa !4
  %31 = call ptr @xmlStrdup(ptr noundef %30)
  %32 = load ptr, ptr %8, align 8, !tbaa !96
  store ptr %31, ptr %32, align 8, !tbaa !4
  br label %33

33:                                               ; preds = %29, %11
  ret void
}

; Function Attrs: nounwind uwtable
define internal void @end_element_handler_ns(ptr noundef %0, ptr noundef %1, ptr noundef %2, ptr noundef %3) #0 {
  %5 = alloca ptr, align 8
  %6 = alloca ptr, align 8
  %7 = alloca ptr, align 8
  %8 = alloca ptr, align 8
  %9 = alloca ptr, align 8
  %10 = alloca ptr, align 8
  %11 = alloca ptr, align 8
  %12 = alloca i32, align 4
  %13 = alloca i32, align 4
  store ptr %0, ptr %5, align 8, !tbaa !53
  store ptr %1, ptr %6, align 8, !tbaa !4
  store ptr %2, ptr %7, align 8, !tbaa !4
  store ptr %3, ptr %8, align 8, !tbaa !4
  call void @llvm.lifetime.start.p0(i64 8, ptr %9) #8
  call void @llvm.lifetime.start.p0(i64 8, ptr %10) #8
  %14 = load ptr, ptr %5, align 8, !tbaa !53
  store ptr %14, ptr %10, align 8, !tbaa !11
  %15 = load ptr, ptr %10, align 8, !tbaa !11
  %16 = getelementptr inbounds nuw %struct.XML_Parser_Struct, ptr %15, i32 0, i32 5
  %17 = load ptr, ptr %16, align 8, !tbaa !56
  %18 = icmp eq ptr %17, null
  br i1 %18, label %19, label %47

19:                                               ; preds = %4
  %20 = load ptr, ptr %10, align 8, !tbaa !11
  %21 = getelementptr inbounds nuw %struct.XML_Parser_Struct, ptr %20, i32 0, i32 9
  %22 = load ptr, ptr %21, align 8, !tbaa !60
  %23 = icmp ne ptr %22, null
  br i1 %23, label %24, label %46

24:                                               ; preds = %19
  call void @llvm.lifetime.start.p0(i64 8, ptr %11) #8
  call void @llvm.lifetime.start.p0(i64 4, ptr %12) #8
  %25 = load ptr, ptr %7, align 8, !tbaa !4
  %26 = icmp ne ptr %25, null
  br i1 %26, label %27, label %32

27:                                               ; preds = %24
  %28 = load ptr, ptr %7, align 8, !tbaa !4
  %29 = load ptr, ptr %6, align 8, !tbaa !4
  %30 = call i64 (ptr, i64, ptr, ...) @zend_spprintf(ptr noundef %11, i64 noundef 0, ptr noundef @.str.17, ptr noundef %28, ptr noundef %29)
  %31 = trunc i64 %30 to i32
  store i32 %31, ptr %12, align 4, !tbaa !66
  br label %36

32:                                               ; preds = %24
  %33 = load ptr, ptr %6, align 8, !tbaa !4
  %34 = call i64 (ptr, i64, ptr, ...) @zend_spprintf(ptr noundef %11, i64 noundef 0, ptr noundef @.str.7, ptr noundef %33)
  %35 = trunc i64 %34 to i32
  store i32 %35, ptr %12, align 4, !tbaa !66
  br label %36

36:                                               ; preds = %32, %27
  %37 = load ptr, ptr %10, align 8, !tbaa !11
  %38 = getelementptr inbounds nuw %struct.XML_Parser_Struct, ptr %37, i32 0, i32 9
  %39 = load ptr, ptr %38, align 8, !tbaa !60
  %40 = load ptr, ptr %10, align 8, !tbaa !11
  %41 = getelementptr inbounds nuw %struct.XML_Parser_Struct, ptr %40, i32 0, i32 2
  %42 = load ptr, ptr %41, align 8, !tbaa !54
  %43 = load ptr, ptr %11, align 8, !tbaa !4
  %44 = load i32, ptr %12, align 4, !tbaa !66
  call void %39(ptr noundef %42, ptr noundef %43, i32 noundef %44)
  %45 = load ptr, ptr %11, align 8, !tbaa !4
  call void @_efree(ptr noundef %45)
  call void @llvm.lifetime.end.p0(i64 4, ptr %12) #8
  call void @llvm.lifetime.end.p0(i64 8, ptr %11) #8
  br label %46

46:                                               ; preds = %36, %19
  store i32 1, ptr %13, align 4
  br label %60

47:                                               ; preds = %4
  %48 = load ptr, ptr %10, align 8, !tbaa !11
  %49 = load ptr, ptr %6, align 8, !tbaa !4
  %50 = load ptr, ptr %8, align 8, !tbaa !4
  call void @qualify_namespace(ptr noundef %48, ptr noundef %49, ptr noundef %50, ptr noundef %9)
  %51 = load ptr, ptr %10, align 8, !tbaa !11
  %52 = getelementptr inbounds nuw %struct.XML_Parser_Struct, ptr %51, i32 0, i32 5
  %53 = load ptr, ptr %52, align 8, !tbaa !56
  %54 = load ptr, ptr %10, align 8, !tbaa !11
  %55 = getelementptr inbounds nuw %struct.XML_Parser_Struct, ptr %54, i32 0, i32 2
  %56 = load ptr, ptr %55, align 8, !tbaa !54
  %57 = load ptr, ptr %9, align 8, !tbaa !4
  call void %53(ptr noundef %56, ptr noundef %57)
  %58 = load ptr, ptr @xmlFree, align 8, !tbaa !53
  %59 = load ptr, ptr %9, align 8, !tbaa !4
  call void %58(ptr noundef %59)
  store i32 0, ptr %13, align 4
  br label %60

60:                                               ; preds = %47, %46
  call void @llvm.lifetime.end.p0(i64 8, ptr %10) #8
  call void @llvm.lifetime.end.p0(i64 8, ptr %9) #8
  %61 = load i32, ptr %13, align 4
  switch i32 %61, label %63 [
    i32 0, label %62
    i32 1, label %62
  ]

62:                                               ; preds = %60, %60
  ret void

63:                                               ; preds = %60
  unreachable
}