; Function Attrs: nounwind uwtable
define internal void @end_element_handler_ns(ptr noundef readonly captures(none) %0, ptr noundef %1, ptr noundef %2, ptr noundef %3) #0 {
  %5 = alloca ptr, align 8
  %6 = getelementptr inbounds nuw i8, ptr %0, i64 40
  %7 = load ptr, ptr %6, align 8, !tbaa !49
  %8 = icmp eq ptr %7, null
  br i1 %8, label %9, label %23

9:                                                ; preds = %4
  %10 = getelementptr inbounds nuw i8, ptr %0, i64 72
  %11 = load ptr, ptr %10, align 8, !tbaa !53
  %.not = icmp eq ptr %11, null
  br i1 %.not, label %37, label %12

12:                                               ; preds = %9
  call void @llvm.lifetime.start.p0(i64 8, ptr nonnull %5) #11
  %.not15 = icmp eq ptr %2, null
  br i1 %.not15, label %15, label %13

13:                                               ; preds = %12
  %14 = call i64 (ptr, i64, ptr, ...) @zend_spprintf(ptr noundef nonnull %5, i64 noundef 0, ptr noundef nonnull @.str.17, ptr noundef nonnull %2, ptr noundef %1) #11
  br label %17

15:                                               ; preds = %12
  %16 = call i64 (ptr, i64, ptr, ...) @zend_spprintf(ptr noundef nonnull %5, i64 noundef 0, ptr noundef nonnull @.str.7, ptr noundef %1) #11
  br label %17

17:                                               ; preds = %15, %13
  %.0.in = phi i64 [ %14, %13 ], [ %16, %15 ]
  %.0 = trunc i64 %.0.in to i32
  %18 = load ptr, ptr %10, align 8, !tbaa !53
  %19 = getelementptr inbounds nuw i8, ptr %0, i64 16
  %20 = load ptr, ptr %19, align 8, !tbaa !47
  %21 = load ptr, ptr %5, align 8, !tbaa !61
  call void %18(ptr noundef %20, ptr noundef %21, i32 noundef %.0) #11
  %22 = load ptr, ptr %5, align 8, !tbaa !61
  call void @_efree(ptr noundef %22) #11
  call void @llvm.lifetime.end.p0(i64 8, ptr nonnull %5) #11
  br label %37

23:                                               ; preds = %4
  %.not.i = icmp eq ptr %3, null
  br i1 %.not.i, label %31, label %24

24:                                               ; preds = %23
  %25 = tail call ptr @xmlStrdup(ptr noundef nonnull %3) #11
  %26 = getelementptr inbounds nuw i8, ptr %0, i64 8
  %27 = load ptr, ptr %26, align 8, !tbaa !45
  %28 = tail call ptr @xmlStrncat(ptr noundef %25, ptr noundef %27, i32 noundef 1) #11
  %29 = tail call i32 @xmlStrlen(ptr noundef %1) #11
  %30 = tail call ptr @xmlStrncat(ptr noundef %28, ptr noundef %1, i32 noundef %29) #11
  br label %qualify_namespace.exit

31:                                               ; preds = %23
  %32 = tail call ptr @xmlStrdup(ptr noundef %1) #11
  br label %qualify_namespace.exit

qualify_namespace.exit:                           ; preds = %24, %31
  %storemerge.i = phi ptr [ %32, %31 ], [ %30, %24 ]
  %33 = load ptr, ptr %6, align 8, !tbaa !49
  %34 = getelementptr inbounds nuw i8, ptr %0, i64 16
  %35 = load ptr, ptr %34, align 8, !tbaa !47
  tail call void %33(ptr noundef %35, ptr noundef %storemerge.i) #11
  %36 = load ptr, ptr @xmlFree, align 8, !tbaa !72
  tail call void %36(ptr noundef %storemerge.i) #11
  br label %37

37:                                               ; preds = %9, %17, %qualify_namespace.exit
  ret void
}